; Function Attrs: mustprogress uwtable
define hidden noundef zeroext i1 @_ZN11bv_rewriter6is_bitEP4exprRj(ptr noundef nonnull align 8 dereferenceable(157) %0, ptr noundef nonnull %1, ptr noundef nonnull writeonly align 4 captures(none) dereferenceable(4) %2) local_unnamed_addr #3 align 2 personality ptr @__gxx_personality_v0 {
  %4 = alloca %class.rational, align 8
  %5 = alloca i32, align 4
  call void @llvm.lifetime.start.p0(i64 32, ptr nonnull %4) #24
  store i32 0, ptr %4, align 8, !tbaa !95
  %6 = getelementptr inbounds nuw i8, ptr %4, i64 4
  store i8 0, ptr %6, align 4
  %7 = getelementptr inbounds nuw i8, ptr %4, i64 8
  store ptr null, ptr %7, align 8, !tbaa !98
  %8 = getelementptr inbounds nuw i8, ptr %4, i64 16
  store i32 1, ptr %8, align 8, !tbaa !95
  %9 = getelementptr inbounds nuw i8, ptr %4, i64 20
  store i8 0, ptr %9, align 4
  %10 = getelementptr inbounds nuw i8, ptr %4, i64 24
  store ptr null, ptr %10, align 8, !tbaa !98
  call void @llvm.lifetime.start.p0(i64 4, ptr nonnull %5) #24
  %11 = getelementptr inbounds nuw i8, ptr %0, i64 8
  %12 = invoke noundef ptr @_ZNK4expr8get_sortEv(ptr noundef nonnull align 4 dereferenceable(16) %1)
          to label %.noexc unwind label %29

.noexc:                                           ; preds = %3
  %13 = invoke noundef zeroext i1 @_ZNK14bv_recognizers10is_bv_sortEPK4sort(ptr noundef nonnull align 4 dereferenceable(4) %11, ptr noundef %12)
          to label %_ZNK11bv_rewriter5is_bvEP4expr.exit unwind label %29

_ZNK11bv_rewriter5is_bvEP4expr.exit:              ; preds = %.noexc
  br i1 %13, label %14, label %23

14:                                               ; preds = %_ZNK11bv_rewriter5is_bvEP4expr.exit
  %15 = invoke noundef zeroext i1 @_ZNK14bv_recognizers10is_numeralEPK4exprR8rationalRj(ptr noundef nonnull align 4 dereferenceable(4) %11, ptr noundef nonnull %1, ptr noundef nonnull align 8 dereferenceable(32) %4, ptr noundef nonnull align 4 dereferenceable(4) %5)
          to label %_ZNK11bv_rewriter10is_numeralEP4exprR8rationalRj.exit unwind label %29

_ZNK11bv_rewriter10is_numeralEP4exprR8rationalRj.exit: ; preds = %14
  %16 = load i32, ptr %5, align 4
  %17 = icmp eq i32 %16, 1
  %or.cond = select i1 %15, i1 %17, i1 false
  br i1 %or.cond, label %18, label %23

18:                                               ; preds = %_ZNK11bv_rewriter10is_numeralEP4exprR8rationalRj.exit
  %19 = load ptr, ptr @_ZN8rational13g_mpq_managerE, align 8, !tbaa !99
  %20 = invoke noundef i64 @_ZNK11mpz_managerILb1EE10get_uint64ERK3mpz(ptr noundef nonnull align 8 dereferenceable(728) %19, ptr noundef nonnull align 8 dereferenceable(32) %4)
          to label %21 unwind label %29

21:                                               ; preds = %18
  %22 = trunc i64 %20 to i32
  store i32 %22, ptr %2, align 4, !tbaa !91
  br label %23

23:                                               ; preds = %21, %_ZNK11bv_rewriter10is_numeralEP4exprR8rationalRj.exit, %_ZNK11bv_rewriter5is_bvEP4expr.exit
  %24 = phi i1 [ false, %_ZNK11bv_rewriter10is_numeralEP4exprR8rationalRj.exit ], [ false, %_ZNK11bv_rewriter5is_bvEP4expr.exit ], [ true, %21 ]
  call void @llvm.lifetime.end.p0(i64 4, ptr nonnull %5) #24
  %25 = load ptr, ptr @_ZN8rational13g_mpq_managerE, align 8, !tbaa !99
  invoke void @_ZN11mpz_managerILb1EE3delEPS0_R3mpz(ptr noundef %25, ptr noundef nonnull align 8 dereferenceable(32) %4)
          to label %.noexc.i unwind label %26

.noexc.i:                                         ; preds = %23
  invoke void @_ZN11mpz_managerILb1EE3delEPS0_R3mpz(ptr noundef %25, ptr noundef nonnull align 8 dereferenceable(16) %8)
          to label %_ZN8rationalD2Ev.exit unwind label %26

26:                                               ; preds = %.noexc.i, %23
  %27 = landingpad { ptr, i32 }
          catch ptr null
  %28 = extractvalue { ptr, i32 } %27, 0
  call void @__clang_call_terminate(ptr %28) #26
  unreachable

_ZN8rationalD2Ev.exit:                            ; preds = %.noexc.i
  call void @llvm.lifetime.end.p0(i64 32, ptr nonnull %4) #24
  ret i1 %24

29:                                               ; preds = %18, %14, %.noexc, %3
  %30 = landingpad { ptr, i32 }
          cleanup
  call void @llvm.lifetime.end.p0(i64 4, ptr nonnull %5) #24
  call void @_ZN8rationalD2Ev(ptr noundef nonnull align 8 dereferenceable(32) %4) #24
  call void @llvm.lifetime.end.p0(i64 32, ptr nonnull %4) #24
  resume { ptr, i32 } %30
}